; Function Attrs: mustprogress nounwind uwtable
define dso_local void @_ZN4llvm4Loop19setLoopMustProgressEv(ptr noundef nonnull align 8 dereferenceable(152) %0) local_unnamed_addr #0 align 2 {
  %2 = alloca ptr, align 8
  %3 = alloca [1 x ptr], align 8
  %4 = getelementptr inbounds nuw i8, ptr %0, i64 32
  %5 = load ptr, ptr %4, align 8
  %6 = load ptr, ptr %5, align 8
  %7 = tail call noundef nonnull align 8 dereferenceable(8) ptr @_ZNK4llvm10BasicBlock10getContextEv(ptr noundef nonnull align 8 dereferenceable(80) %6) #19
  %8 = tail call noundef ptr @_ZNK4llvm4Loop9getLoopIDEv(ptr noundef nonnull align 8 dereferenceable(152) %0)
  %9 = tail call noundef ptr @_ZN4llvm21findOptionMDForLoopIDEPNS_6MDNodeENS_9StringRefE(ptr noundef %8, ptr nonnull readonly @.str.12, i64 22)
  %.not = icmp eq ptr %9, null
  br i1 %.not, label %10, label %15

10:                                               ; preds = %1
  %11 = tail call noundef ptr @_ZN4llvm8MDString3getERNS_11LLVMContextENS_9StringRefE(ptr noundef nonnull align 8 dereferenceable(8) %7, ptr nonnull @.str.12, i64 22) #19
  store ptr %11, ptr %2, align 8
  %12 = call noundef ptr @_ZN4llvm7MDTuple7getImplERNS_11LLVMContextENS_8ArrayRefIPNS_8MetadataEEENS4_11StorageTypeEb(ptr noundef nonnull align 8 dereferenceable(8) %7, ptr nonnull %2, i64 1, i32 noundef 0, i1 noundef zeroext true) #19
  %13 = call noundef ptr @_ZNK4llvm4Loop9getLoopIDEv(ptr noundef nonnull align 8 dereferenceable(152) %0)
  store ptr %12, ptr %3, align 8
  %14 = call noundef ptr @_ZN4llvm30makePostTransformationMetadataERNS_11LLVMContextEPNS_6MDNodeENS_8ArrayRefINS_9StringRefEEENS4_IS3_EE(ptr noundef nonnull align 8 dereferenceable(8) %7, ptr noundef %13, ptr null, i64 0, ptr nonnull %3, i64 1)
  call void @_ZNK4llvm4Loop9setLoopIDEPNS_6MDNodeE(ptr noundef nonnull align 8 dereferenceable(152) %0, ptr noundef %14)
  br label %15

15:                                               ; preds = %1, %10
  ret void
}